
a.elf:     file format elf32-littleriscv


Disassembly of section .text:

00000000 <_start>:
   0:	00010137          	lui	sp,0x10
   4:	0c40006f          	j	c8 <cmain>
   8:	00000013          	nop
   c:	00000013          	nop
  10:	00000013          	nop

00000014 <_here>:
  14:	0000006f          	j	14 <_here>

00000018 <eth_init>:
  18:	01000793          	li	a5,16
  1c:	00f500a3          	sb	a5,1(a0)
  20:	00050023          	sb	zero,0(a0)
  24:	00454603          	lbu	a2,4(a0)
  28:	00554703          	lbu	a4,5(a0)
  2c:	00654783          	lbu	a5,6(a0)
  30:	00754683          	lbu	a3,7(a0)
  34:	00871713          	slli	a4,a4,0x8
  38:	00c76733          	or	a4,a4,a2
  3c:	01079793          	slli	a5,a5,0x10
  40:	00e7e7b3          	or	a5,a5,a4
  44:	01869713          	slli	a4,a3,0x18
  48:	01079693          	slli	a3,a5,0x10
  4c:	4106d693          	srai	a3,a3,0x10
  50:	00f76733          	or	a4,a4,a5
  54:	fc06c8e3          	bltz	a3,24 <eth_init+0xc>
  58:	ffffa7b7          	lui	a5,0xffffa
  5c:	10078793          	addi	a5,a5,256 # ffffa100 <cmain+0xffffa038>
  60:	03f77713          	andi	a4,a4,63
  64:	00f76733          	or	a4,a4,a5
  68:	00454683          	lbu	a3,4(a0)
  6c:	01071793          	slli	a5,a4,0x10
  70:	0107d793          	srli	a5,a5,0x10
  74:	03f77713          	andi	a4,a4,63
  78:	00e50223          	sb	a4,4(a0)
  7c:	0087d693          	srli	a3,a5,0x8
  80:	00554703          	lbu	a4,5(a0)
  84:	00d502a3          	sb	a3,5(a0)
  88:	00654703          	lbu	a4,6(a0)
  8c:	0187d793          	srli	a5,a5,0x18
  90:	00050323          	sb	zero,6(a0)
  94:	00754703          	lbu	a4,7(a0)
  98:	00f503a3          	sb	a5,7(a0)
  9c:	00008067          	ret

000000a0 <eth_wait_link>:
  a0:	01100793          	li	a5,17
  a4:	00f50023          	sb	a5,0(a0)
  a8:	00454783          	lbu	a5,4(a0)
  ac:	00554783          	lbu	a5,5(a0)
  b0:	00654703          	lbu	a4,6(a0)
  b4:	00754703          	lbu	a4,7(a0)
  b8:	00879793          	slli	a5,a5,0x8
  bc:	4007f793          	andi	a5,a5,1024
  c0:	fe0784e3          	beqz	a5,a8 <eth_wait_link+0x8>
  c4:	00008067          	ret

000000c8 <cmain>:
  c8:	f00017b7          	lui	a5,0xf0001
  cc:	0007a023          	sw	zero,0(a5) # f0001000 <cmain+0xf0000f38>
  d0:	f00007b7          	lui	a5,0xf0000
  d4:	0007a023          	sw	zero,0(a5) # f0000000 <cmain+0xefffff38>
  d8:	01000713          	li	a4,16
  dc:	f10007b7          	lui	a5,0xf1000
  e0:	00e780a3          	sb	a4,1(a5) # f1000001 <cmain+0xf0ffff39>
  e4:	00078023          	sb	zero,0(a5)
  e8:	f10006b7          	lui	a3,0xf1000
  ec:	0046a783          	lw	a5,4(a3) # f1000004 <cmain+0xf0ffff3c>
  f0:	01079713          	slli	a4,a5,0x10
  f4:	41075713          	srai	a4,a4,0x10
  f8:	fe074ae3          	bltz	a4,ec <cmain+0x24>
  fc:	ffffa737          	lui	a4,0xffffa
 100:	10070713          	addi	a4,a4,256 # ffffa100 <cmain+0xffffa038>
 104:	03f7f793          	andi	a5,a5,63
 108:	00e7e7b3          	or	a5,a5,a4
 10c:	01079793          	slli	a5,a5,0x10
 110:	0107d793          	srli	a5,a5,0x10
 114:	00f6a223          	sw	a5,4(a3)
 118:	01100793          	li	a5,17
 11c:	00f68023          	sb	a5,0(a3)
 120:	f1000737          	lui	a4,0xf1000
 124:	00472783          	lw	a5,4(a4) # f1000004 <cmain+0xf0ffff3c>
 128:	4007f793          	andi	a5,a5,1024
 12c:	fe078ce3          	beqz	a5,124 <cmain+0x5c>
 130:	000107b7          	lui	a5,0x10
 134:	f0000737          	lui	a4,0xf0000
 138:	fff78793          	addi	a5,a5,-1 # ffff <cmain+0xff37>
 13c:	00f72023          	sw	a5,0(a4) # f0000000 <cmain+0xefffff38>
 140:	0000006f          	j	140 <cmain+0x78>
