
a.elf:     file format elf32-littleriscv


Disassembly of section .text:

00000000 <_start>:
   0:	00010137          	lui	x2,0x10
   4:	36c0006f          	j	370 <cmain>
   8:	00000013          	nop
   c:	00000013          	nop
  10:	00000013          	nop

00000014 <_here>:
  14:	0000006f          	j	14 <_here>

00000018 <rand>:
  18:	51802783          	lw	x15,1304(x0) # 518 <rseed>
  1c:	00179513          	slli	x10,x15,0x1
  20:	00f50533          	add	x10,x10,x15
  24:	00251513          	slli	x10,x10,0x2
  28:	00f50533          	add	x10,x10,x15
  2c:	00451513          	slli	x10,x10,0x4
  30:	00f50533          	add	x10,x10,x15
  34:	00851513          	slli	x10,x10,0x8
  38:	40f50533          	sub	x10,x10,x15
  3c:	00251513          	slli	x10,x10,0x2
  40:	00f50533          	add	x10,x10,x15
  44:	0026a7b7          	lui	x15,0x26a
  48:	ec378793          	addi	x15,x15,-317 # 269ec3 <rseed+0x2699ab>
  4c:	00f50533          	add	x10,x10,x15
  50:	00151513          	slli	x10,x10,0x1
  54:	00155513          	srli	x10,x10,0x1
  58:	50a02c23          	sw	x10,1304(x0) # 518 <rseed>
  5c:	01055513          	srli	x10,x10,0x10
  60:	00008067          	ret

00000064 <mypow>:
  64:	04b05863          	blez	x11,b4 <mypow+0x50>
  68:	ff010113          	addi	x2,x2,-16 # fff0 <rseed+0xfad8>
  6c:	00812423          	sw	x8,8(x2)
  70:	00912223          	sw	x9,4(x2)
  74:	01212023          	sw	x18,0(x2)
  78:	00112623          	sw	x1,12(x2)
  7c:	00050913          	mv	x18,x10
  80:	00058493          	mv	x9,x11
  84:	00000413          	li	x8,0
  88:	00100513          	li	x10,1
  8c:	00090593          	mv	x11,x18
  90:	00140413          	addi	x8,x8,1
  94:	304000ef          	jal	x1,398 <__mulsi3>
  98:	fe849ae3          	bne	x9,x8,8c <mypow+0x28>
  9c:	00c12083          	lw	x1,12(x2)
  a0:	00812403          	lw	x8,8(x2)
  a4:	00412483          	lw	x9,4(x2)
  a8:	00012903          	lw	x18,0(x2)
  ac:	01010113          	addi	x2,x2,16
  b0:	00008067          	ret
  b4:	00100513          	li	x10,1
  b8:	00008067          	ret

000000bc <HsvToRgb>:
  bc:	fc010113          	addi	x2,x2,-64
  c0:	03312623          	sw	x19,44(x2)
  c4:	01055993          	srli	x19,x10,0x10
  c8:	0ff9f993          	zext.b	x19,x19
  cc:	03512223          	sw	x21,36(x2)
  d0:	00855a93          	srli	x21,x10,0x8
  d4:	00899793          	slli	x15,x19,0x8
  d8:	00a12623          	sw	x10,12(x2)
  dc:	02112e23          	sw	x1,60(x2)
  e0:	02812c23          	sw	x8,56(x2)
  e4:	02912a23          	sw	x9,52(x2)
  e8:	03212823          	sw	x18,48(x2)
  ec:	03412423          	sw	x20,40(x2)
  f0:	0ffafa93          	zext.b	x21,x21
  f4:	00f9e533          	or	x10,x19,x15
  f8:	0c0a8c63          	beqz	x21,1d0 <HsvToRgb+0x114>
  fc:	00c14483          	lbu	x9,12(x2)
 100:	02b00593          	li	x11,43
 104:	0ff00913          	li	x18,255
 108:	00048513          	mv	x10,x9
 10c:	2b8000ef          	jal	x1,3c4 <__udivsi3>
 110:	0ff57a13          	zext.b	x20,x10
 114:	001a1413          	slli	x8,x20,0x1
 118:	01440433          	add	x8,x8,x20
 11c:	00241413          	slli	x8,x8,0x2
 120:	41440433          	sub	x8,x8,x20
 124:	00241413          	slli	x8,x8,0x2
 128:	00098593          	mv	x11,x19
 12c:	41590533          	sub	x10,x18,x21
 130:	408a0433          	sub	x8,x20,x8
 134:	264000ef          	jal	x1,398 <__mulsi3>
 138:	00940433          	add	x8,x8,x9
 13c:	00141793          	slli	x15,x8,0x1
 140:	00f40433          	add	x8,x8,x15
 144:	00141413          	slli	x8,x8,0x1
 148:	0ff47413          	zext.b	x8,x8
 14c:	00040593          	mv	x11,x8
 150:	40855493          	srai	x9,x10,0x8
 154:	000a8513          	mv	x10,x21
 158:	240000ef          	jal	x1,398 <__mulsi3>
 15c:	40855513          	srai	x10,x10,0x8
 160:	00098593          	mv	x11,x19
 164:	40a90533          	sub	x10,x18,x10
 168:	230000ef          	jal	x1,398 <__mulsi3>
 16c:	40855713          	srai	x14,x10,0x8
 170:	000a8593          	mv	x11,x21
 174:	40890533          	sub	x10,x18,x8
 178:	0ff77413          	zext.b	x8,x14
 17c:	21c000ef          	jal	x1,398 <__mulsi3>
 180:	40855513          	srai	x10,x10,0x8
 184:	00098593          	mv	x11,x19
 188:	40a90533          	sub	x10,x18,x10
 18c:	20c000ef          	jal	x1,398 <__mulsi3>
 190:	40855713          	srai	x14,x10,0x8
 194:	00400793          	li	x15,4
 198:	0ff4f493          	zext.b	x9,x9
 19c:	0ff77713          	zext.b	x14,x14
 1a0:	0b47e663          	bltu	x15,x20,24c <HsvToRgb+0x190>
 1a4:	002a1793          	slli	x15,x20,0x2
 1a8:	50000693          	li	x13,1280
 1ac:	00d787b3          	add	x15,x15,x13
 1b0:	0007a783          	lw	x15,0(x15)
 1b4:	00078067          	jr	x15
 1b8:	00098713          	mv	x14,x19
 1bc:	00048993          	mv	x19,x9
 1c0:	00040493          	mv	x9,x8
 1c4:	00871713          	slli	x14,x14,0x8
 1c8:	0ff4f513          	zext.b	x10,x9
 1cc:	00e56533          	or	x10,x10,x14
 1d0:	00855793          	srli	x15,x10,0x8
 1d4:	03c12083          	lw	x1,60(x2)
 1d8:	03812403          	lw	x8,56(x2)
 1dc:	0ff7f793          	zext.b	x15,x15
 1e0:	0ff57513          	zext.b	x10,x10
 1e4:	00879793          	slli	x15,x15,0x8
 1e8:	0ff9f993          	zext.b	x19,x19
 1ec:	01099993          	slli	x19,x19,0x10
 1f0:	00f56533          	or	x10,x10,x15
 1f4:	03412483          	lw	x9,52(x2)
 1f8:	03012903          	lw	x18,48(x2)
 1fc:	02812a03          	lw	x20,40(x2)
 200:	02412a83          	lw	x21,36(x2)
 204:	01356533          	or	x10,x10,x19
 208:	02c12983          	lw	x19,44(x2)
 20c:	04010113          	addi	x2,x2,64
 210:	00008067          	ret
 214:	00048793          	mv	x15,x9
 218:	00098493          	mv	x9,x19
 21c:	00078993          	mv	x19,x15
 220:	fa5ff06f          	j	1c4 <HsvToRgb+0x108>
 224:	00048793          	mv	x15,x9
 228:	00070493          	mv	x9,x14
 22c:	00078713          	mv	x14,x15
 230:	f95ff06f          	j	1c4 <HsvToRgb+0x108>
 234:	00070793          	mv	x15,x14
 238:	00098713          	mv	x14,x19
 23c:	00078993          	mv	x19,x15
 240:	f85ff06f          	j	1c4 <HsvToRgb+0x108>
 244:	00040713          	mv	x14,x8
 248:	f7dff06f          	j	1c4 <HsvToRgb+0x108>
 24c:	00048713          	mv	x14,x9
 250:	00098493          	mv	x9,x19
 254:	00040993          	mv	x19,x8
 258:	f6dff06f          	j	1c4 <HsvToRgb+0x108>

0000025c <memtest_addr_pattern>:
 25c:	0025d713          	srli	x14,x11,0x2
 260:	04058a63          	beqz	x11,2b4 <memtest_addr_pattern+0x58>
 264:	00259793          	slli	x15,x11,0x2
 268:	ffc78793          	addi	x15,x15,-4
 26c:	00f507b3          	add	x15,x10,x15
 270:	fff58593          	addi	x11,x11,-1
 274:	00b7a023          	sw	x11,0(x15)
 278:	ffc78793          	addi	x15,x15,-4
 27c:	fe059ae3          	bnez	x11,270 <memtest_addr_pattern+0x14>
 280:	00071a63          	bnez	x14,294 <memtest_addr_pattern+0x38>
 284:	0300006f          	j	2b4 <memtest_addr_pattern+0x58>
 288:	00158593          	addi	x11,x11,1
 28c:	00450513          	addi	x10,x10,4
 290:	02b70263          	beq	x14,x11,2b4 <memtest_addr_pattern+0x58>
 294:	00052783          	lw	x15,0(x10)
 298:	feb788e3          	beq	x15,x11,288 <memtest_addr_pattern+0x2c>
 29c:	f00007b7          	lui	x15,0xf0000
 2a0:	00b7a223          	sw	x11,4(x15) # f0000004 <rseed+0xeffffaec>
 2a4:	f0000737          	lui	x14,0xf0000
 2a8:	00052783          	lw	x15,0(x10)
 2ac:	00f72023          	sw	x15,0(x14) # f0000000 <rseed+0xeffffae8>
 2b0:	ff9ff06f          	j	2a8 <memtest_addr_pattern+0x4c>
 2b4:	00100513          	li	x10,1
 2b8:	00008067          	ret

000002bc <doLEDs>:
 2bc:	fd010113          	addi	x2,x2,-48
 2c0:	fff00793          	li	x15,-1
 2c4:	02812423          	sw	x8,40(x2)
 2c8:	02912223          	sw	x9,36(x2)
 2cc:	03212023          	sw	x18,32(x2)
 2d0:	01312e23          	sw	x19,28(x2)
 2d4:	02112623          	sw	x1,44(x2)
 2d8:	00f104a3          	sb	x15,9(x2)
 2dc:	00000493          	li	x9,0
 2e0:	f0000937          	lui	x18,0xf0000
 2e4:	f0002437          	lui	x8,0xf0002
 2e8:	00900993          	li	x19,9
 2ec:	00092783          	lw	x15,0(x18) # f0000000 <rseed+0xeffffae8>
 2f0:	00148493          	addi	x9,x9,1
 2f4:	0ff4f493          	zext.b	x9,x9
 2f8:	00f10523          	sb	x15,10(x2)
 2fc:	00910423          	sb	x9,8(x2)
 300:	00812503          	lw	x10,8(x2)
 304:	db9ff0ef          	jal	x1,bc <HsvToRgb>
 308:	00855613          	srli	x12,x10,0x8
 30c:	0ff67793          	zext.b	x15,x12
 310:	0ff57713          	zext.b	x14,x10
 314:	01055693          	srli	x13,x10,0x10
 318:	00871713          	slli	x14,x14,0x8
 31c:	01079793          	slli	x15,x15,0x10
 320:	00e7e7b3          	or	x15,x15,x14
 324:	0ff6f713          	zext.b	x14,x13
 328:	00a10623          	sb	x10,12(x2)
 32c:	00c106a3          	sb	x12,13(x2)
 330:	00d10723          	sb	x13,14(x2)
 334:	00e7e7b3          	or	x15,x15,x14
 338:	00f42023          	sw	x15,0(x8) # f0002000 <rseed+0xf0001ae8>
 33c:	00f42223          	sw	x15,4(x8)
 340:	00f42423          	sw	x15,8(x8)
 344:	00f42623          	sw	x15,12(x8)
 348:	00f42823          	sw	x15,16(x8)
 34c:	00f42a23          	sw	x15,20(x8)
 350:	00f42c23          	sw	x15,24(x8)
 354:	00f42e23          	sw	x15,28(x8)
 358:	02f42023          	sw	x15,32(x8)
 35c:	02f42223          	sw	x15,36(x8)
 360:	00092823          	sw	x0,16(x18)
 364:	01092783          	lw	x15,16(x18)
 368:	fef9fee3          	bgeu	x19,x15,364 <doLEDs+0xa8>
 36c:	f81ff06f          	j	2ec <doLEDs+0x30>

00000370 <cmain>:
 370:	fe010113          	addi	x2,x2,-32
 374:	00812c23          	sw	x8,24(x2)
 378:	00112e23          	sw	x1,28(x2)
 37c:	00012623          	sw	x0,12(x2)
 380:	f0000437          	lui	x8,0xf0000
 384:	01042503          	lw	x10,16(x8) # f0000010 <rseed+0xeffffaf8>
 388:	3e800593          	li	x11,1000
 38c:	038000ef          	jal	x1,3c4 <__udivsi3>
 390:	00a42223          	sw	x10,4(x8)
 394:	ff1ff06f          	j	384 <cmain+0x14>

00000398 <__mulsi3>:
 398:	00050613          	mv	x12,x10
 39c:	00000513          	li	x10,0
 3a0:	0015f693          	andi	x13,x11,1
 3a4:	00068463          	beqz	x13,3ac <__mulsi3+0x14>
 3a8:	00c50533          	add	x10,x10,x12
 3ac:	0015d593          	srli	x11,x11,0x1
 3b0:	00161613          	slli	x12,x12,0x1
 3b4:	fe0596e3          	bnez	x11,3a0 <__mulsi3+0x8>
 3b8:	00008067          	ret

000003bc <__divsi3>:
 3bc:	06054063          	bltz	x10,41c <__umodsi3+0x10>
 3c0:	0605c663          	bltz	x11,42c <__umodsi3+0x20>

000003c4 <__udivsi3>:
 3c4:	00058613          	mv	x12,x11
 3c8:	00050593          	mv	x11,x10
 3cc:	fff00513          	li	x10,-1
 3d0:	02060c63          	beqz	x12,408 <__udivsi3+0x44>
 3d4:	00100693          	li	x13,1
 3d8:	00b67a63          	bgeu	x12,x11,3ec <__udivsi3+0x28>
 3dc:	00c05863          	blez	x12,3ec <__udivsi3+0x28>
 3e0:	00161613          	slli	x12,x12,0x1
 3e4:	00169693          	slli	x13,x13,0x1
 3e8:	feb66ae3          	bltu	x12,x11,3dc <__udivsi3+0x18>
 3ec:	00000513          	li	x10,0
 3f0:	00c5e663          	bltu	x11,x12,3fc <__udivsi3+0x38>
 3f4:	40c585b3          	sub	x11,x11,x12
 3f8:	00d56533          	or	x10,x10,x13
 3fc:	0016d693          	srli	x13,x13,0x1
 400:	00165613          	srli	x12,x12,0x1
 404:	fe0696e3          	bnez	x13,3f0 <__udivsi3+0x2c>
 408:	00008067          	ret

0000040c <__umodsi3>:
 40c:	00008293          	mv	x5,x1
 410:	fb5ff0ef          	jal	x1,3c4 <__udivsi3>
 414:	00058513          	mv	x10,x11
 418:	00028067          	jr	x5
 41c:	40a00533          	neg	x10,x10
 420:	00b04863          	bgtz	x11,430 <__umodsi3+0x24>
 424:	40b005b3          	neg	x11,x11
 428:	f9dff06f          	j	3c4 <__udivsi3>
 42c:	40b005b3          	neg	x11,x11
 430:	00008293          	mv	x5,x1
 434:	f91ff0ef          	jal	x1,3c4 <__udivsi3>
 438:	40a00533          	neg	x10,x10
 43c:	00028067          	jr	x5

00000440 <__modsi3>:
 440:	00008293          	mv	x5,x1
 444:	0005ca63          	bltz	x11,458 <__modsi3+0x18>
 448:	00054c63          	bltz	x10,460 <__modsi3+0x20>
 44c:	f79ff0ef          	jal	x1,3c4 <__udivsi3>
 450:	00058513          	mv	x10,x11
 454:	00028067          	jr	x5
 458:	40b005b3          	neg	x11,x11
 45c:	fe0558e3          	bgez	x10,44c <__modsi3+0xc>
 460:	40a00533          	neg	x10,x10
 464:	f61ff0ef          	jal	x1,3c4 <__udivsi3>
 468:	40b00533          	neg	x10,x11
 46c:	00028067          	jr	x5
